target datalayout = "e-m:e-p270:32:32-p271:32:32-p272:64:64-i64:64-i128:128-f80:128-n8:16:32:64-S128"
target triple = "x86_64-pc-linux-gnu"

%struct.Abc_Ntk_t_ = type { i32, i32, ptr, ptr, ptr, ptr, ptr, ptr, ptr, ptr, ptr, ptr, ptr, [11 x i32], i32, i32, i32, i32, ptr, i32, ptr, ptr, i32, i32, i32, double, i32, %struct.Vec_Int_t_, ptr, ptr, ptr, ptr, ptr, float, i32, ptr, ptr, ptr, ptr, ptr, ptr, ptr, ptr, ptr, ptr, ptr, ptr, ptr, ptr, ptr, ptr, ptr, ptr, ptr, ptr, ptr }
%struct.Vec_Int_t_ = type { i32, i32, ptr }
%struct.Abc_ManTime_t_ = type { %struct.Abc_Time_t_, %struct.Abc_Time_t_, ptr, ptr, %struct.Abc_Time_t_, %struct.Abc_Time_t_, ptr, ptr }
%struct.Abc_Time_t_ = type { float, float }
%struct.Abc_Obj_t_ = type { ptr, ptr, i32, i32, %struct.Vec_Int_t_, %struct.Vec_Int_t_, %union.anon, %union.anon.0 }
%union.anon = type { ptr }
%union.anon.0 = type { ptr }
%struct.Vec_Ptr_t_ = type { i32, i32, ptr }

; Function Attrs: nounwind uwtable
define internal ptr @Vec_PtrEntry(ptr noundef %0, i32 noundef %1) #0 {
  %3 = alloca ptr, align 8
  %4 = alloca i32, align 4
  store ptr %0, ptr %3, align 8
  store i32 %1, ptr %4, align 4
  %5 = load ptr, ptr %3, align 8
  %6 = getelementptr inbounds %struct.Vec_Ptr_t_, ptr %5, i32 0, i32 2
  %7 = load ptr, ptr %6, align 8
  %8 = load i32, ptr %4, align 4
  %9 = sext i32 %8 to i64
  %10 = getelementptr inbounds ptr, ptr %7, i64 %9
  %11 = load ptr, ptr %10, align 8
  ret ptr %11
}

; Function Attrs: nounwind uwtable
define internal i32 @Vec_PtrSize(ptr noundef %0) #0 {
  %2 = alloca ptr, align 8
  store ptr %0, ptr %2, align 8
  %3 = load ptr, ptr %2, align 8
  %4 = getelementptr inbounds %struct.Vec_Ptr_t_, ptr %3, i32 0, i32 1
  %5 = load i32, ptr %4, align 4
  ret i32 %5
}

; Function Attrs: nounwind uwtable
define internal ptr @Abc_NtkCo(ptr noundef %0, i32 noundef %1) #0 {
  %3 = alloca ptr, align 8
  %4 = alloca i32, align 4
  store ptr %0, ptr %3, align 8
  store i32 %1, ptr %4, align 4
  %5 = load ptr, ptr %3, align 8
  %6 = getelementptr inbounds %struct.Abc_Ntk_t_, ptr %5, i32 0, i32 9
  %7 = load ptr, ptr %6, align 8
  %8 = load i32, ptr %4, align 4
  %9 = call ptr @Vec_PtrEntry(ptr noundef %7, i32 noundef %8)
  ret ptr %9
}

; Function Attrs: nounwind uwtable
define internal i32 @Abc_NtkCoNum(ptr noundef %0) #0 {
  %2 = alloca ptr, align 8
  store ptr %0, ptr %2, align 8
  %3 = load ptr, ptr %2, align 8
  %4 = getelementptr inbounds %struct.Abc_Ntk_t_, ptr %3, i32 0, i32 9
  %5 = load ptr, ptr %4, align 8
  %6 = call i32 @Vec_PtrSize(ptr noundef %5)
  ret i32 %6
}

; Function Attrs: nounwind uwtable
define internal ptr @Abc_NtkCi(ptr noundef %0, i32 noundef %1) #0 {
  %3 = alloca ptr, align 8
  %4 = alloca i32, align 4
  store ptr %0, ptr %3, align 8
  store i32 %1, ptr %4, align 4
  %5 = load ptr, ptr %3, align 8
  %6 = getelementptr inbounds %struct.Abc_Ntk_t_, ptr %5, i32 0, i32 8
  %7 = load ptr, ptr %6, align 8
  %8 = load i32, ptr %4, align 4
  %9 = call ptr @Vec_PtrEntry(ptr noundef %7, i32 noundef %8)
  ret ptr %9
}

; Function Attrs: nounwind uwtable
define internal i32 @Abc_NtkCiNum(ptr noundef %0) #0 {
  %2 = alloca ptr, align 8
  store ptr %0, ptr %2, align 8
  %3 = load ptr, ptr %2, align 8
  %4 = getelementptr inbounds %struct.Abc_Ntk_t_, ptr %3, i32 0, i32 8
  %5 = load ptr, ptr %4, align 8
  %6 = call i32 @Vec_PtrSize(ptr noundef %5)
  ret i32 %6
}

; Function Attrs: nounwind uwtable
define internal i32 @Abc_NtkObjNumMax(ptr noundef %0) #0 {
  %2 = alloca ptr, align 8
  store ptr %0, ptr %2, align 8
  %3 = load ptr, ptr %2, align 8
  %4 = getelementptr inbounds %struct.Abc_Ntk_t_, ptr %3, i32 0, i32 5
  %5 = load ptr, ptr %4, align 8
  %6 = call i32 @Vec_PtrSize(ptr noundef %5)
  ret i32 %6
}

; Function Attrs: nounwind uwtable
define void @Abc_ManTimeDup(ptr noundef %0, ptr noundef %1) #0 {
  %3 = alloca ptr, align 8
  %4 = alloca ptr, align 8
  %5 = alloca ptr, align 8
  %6 = alloca ptr, align 8
  %7 = alloca ptr, align 8
  %8 = alloca i32, align 4
  store ptr %0, ptr %3, align 8
  store ptr %1, ptr %4, align 8
  %9 = load ptr, ptr %3, align 8
  %10 = getelementptr inbounds %struct.Abc_Ntk_t_, ptr %9, i32 0, i32 31
  %11 = load ptr, ptr %10, align 8
  %12 = icmp eq ptr %11, null
  br i1 %12, label %13, label %14

13:                                               ; preds = %2
  br label %209

14:                                               ; preds = %2
  %15 = load ptr, ptr %4, align 8
  %16 = call ptr @Abc_ManTimeStart(ptr noundef %15)
  %17 = load ptr, ptr %4, align 8
  %18 = getelementptr inbounds %struct.Abc_Ntk_t_, ptr %17, i32 0, i32 31
  store ptr %16, ptr %18, align 8
  %19 = load ptr, ptr %4, align 8
  %20 = getelementptr inbounds %struct.Abc_Ntk_t_, ptr %19, i32 0, i32 31
  %21 = load ptr, ptr %20, align 8
  %22 = load ptr, ptr %4, align 8
  %23 = call i32 @Abc_NtkObjNumMax(ptr noundef %22)
  call void @Abc_ManTimeExpand(ptr noundef %21, i32 noundef %23, i32 noundef 0)
  %24 = load ptr, ptr %4, align 8
  %25 = getelementptr inbounds %struct.Abc_Ntk_t_, ptr %24, i32 0, i32 31
  %26 = load ptr, ptr %25, align 8
  %27 = getelementptr inbounds %struct.Abc_ManTime_t_, ptr %26, i32 0, i32 0
  %28 = load ptr, ptr %3, align 8
  %29 = getelementptr inbounds %struct.Abc_Ntk_t_, ptr %28, i32 0, i32 31
  %30 = load ptr, ptr %29, align 8
  %31 = getelementptr inbounds %struct.Abc_ManTime_t_, ptr %30, i32 0, i32 0
  call void @llvm.memcpy.p0.p0.i64(ptr align 8 %27, ptr align 8 %31, i64 8, i1 false)
  %32 = load ptr, ptr %4, align 8
  %33 = getelementptr inbounds %struct.Abc_Ntk_t_, ptr %32, i32 0, i32 31
  %34 = load ptr, ptr %33, align 8
  %35 = getelementptr inbounds %struct.Abc_ManTime_t_, ptr %34, i32 0, i32 1
  %36 = load ptr, ptr %3, align 8
  %37 = getelementptr inbounds %struct.Abc_Ntk_t_, ptr %36, i32 0, i32 31
  %38 = load ptr, ptr %37, align 8
  %39 = getelementptr inbounds %struct.Abc_ManTime_t_, ptr %38, i32 0, i32 1
  call void @llvm.memcpy.p0.p0.i64(ptr align 8 %35, ptr align 8 %39, i64 8, i1 false)
  %40 = load ptr, ptr %3, align 8
  %41 = getelementptr inbounds %struct.Abc_Ntk_t_, ptr %40, i32 0, i32 31
  %42 = load ptr, ptr %41, align 8
  %43 = getelementptr inbounds %struct.Abc_ManTime_t_, ptr %42, i32 0, i32 2
  %44 = load ptr, ptr %43, align 8
  %45 = getelementptr inbounds %struct.Vec_Ptr_t_, ptr %44, i32 0, i32 2
  %46 = load ptr, ptr %45, align 8
  store ptr %46, ptr %6, align 8
  %47 = load ptr, ptr %4, align 8
  %48 = getelementptr inbounds %struct.Abc_Ntk_t_, ptr %47, i32 0, i32 31
  %49 = load ptr, ptr %48, align 8
  %50 = getelementptr inbounds %struct.Abc_ManTime_t_, ptr %49, i32 0, i32 2
  %51 = load ptr, ptr %50, align 8
  %52 = getelementptr inbounds %struct.Vec_Ptr_t_, ptr %51, i32 0, i32 2
  %53 = load ptr, ptr %52, align 8
  store ptr %53, ptr %7, align 8
  store i32 0, ptr %8, align 4
  br label %54

54:                                               ; preds = %82, %14
  %55 = load i32, ptr %8, align 4
  %56 = load ptr, ptr %3, align 8
  %57 = call i32 @Abc_NtkCiNum(ptr noundef %56)
  %58 = icmp slt i32 %55, %57
  br i1 %58, label %59, label %63

59:                                               ; preds = %54
  %60 = load ptr, ptr %3, align 8
  %61 = load i32, ptr %8, align 4
  %62 = call ptr @Abc_NtkCi(ptr noundef %60, i32 noundef %61)
  store ptr %62, ptr %5, align 8
  br label %63

63:                                               ; preds = %59, %54
  %64 = phi i1 [ false, %54 ], [ true, %59 ]
  br i1 %64, label %65, label %85

65:                                               ; preds = %63
  %66 = load ptr, ptr %7, align 8
  %67 = load ptr, ptr %4, align 8
  %68 = load i32, ptr %8, align 4
  %69 = call ptr @Abc_NtkCi(ptr noundef %67, i32 noundef %68)
  %70 = getelementptr inbounds %struct.Abc_Obj_t_, ptr %69, i32 0, i32 2
  %71 = load i32, ptr %70, align 8
  %72 = sext i32 %71 to i64
  %73 = getelementptr inbounds ptr, ptr %66, i64 %72
  %74 = load ptr, ptr %73, align 8
  %75 = load ptr, ptr %6, align 8
  %76 = load ptr, ptr %5, align 8
  %77 = getelementptr inbounds %struct.Abc_Obj_t_, ptr %76, i32 0, i32 2
  %78 = load i32, ptr %77, align 8
  %79 = sext i32 %78 to i64
  %80 = getelementptr inbounds ptr, ptr %75, i64 %79
  %81 = load ptr, ptr %80, align 8
  call void @llvm.memcpy.p0.p0.i64(ptr align 4 %74, ptr align 4 %81, i64 8, i1 false)
  br label %82

82:                                               ; preds = %65
  %83 = load i32, ptr %8, align 4
  %84 = add nsw i32 %83, 1
  store i32 %84, ptr %8, align 4
  br label %54, !llvm.loop !25

85:                                               ; preds = %63
  %86 = load ptr, ptr %3, align 8
  %87 = getelementptr inbounds %struct.Abc_Ntk_t_, ptr %86, i32 0, i32 31
  %88 = load ptr, ptr %87, align 8
  %89 = getelementptr inbounds %struct.Abc_ManTime_t_, ptr %88, i32 0, i32 3
  %90 = load ptr, ptr %89, align 8
  %91 = getelementptr inbounds %struct.Vec_Ptr_t_, ptr %90, i32 0, i32 2
  %92 = load ptr, ptr %91, align 8
  store ptr %92, ptr %6, align 8
  %93 = load ptr, ptr %4, align 8
  %94 = getelementptr inbounds %struct.Abc_Ntk_t_, ptr %93, i32 0, i32 31
  %95 = load ptr, ptr %94, align 8
  %96 = getelementptr inbounds %struct.Abc_ManTime_t_, ptr %95, i32 0, i32 3
  %97 = load ptr, ptr %96, align 8
  %98 = getelementptr inbounds %struct.Vec_Ptr_t_, ptr %97, i32 0, i32 2
  %99 = load ptr, ptr %98, align 8
  store ptr %99, ptr %7, align 8
  store i32 0, ptr %8, align 4
  br label %100

100:                                              ; preds = %128, %85
  %101 = load i32, ptr %8, align 4
  %102 = load ptr, ptr %3, align 8
  %103 = call i32 @Abc_NtkCoNum(ptr noundef %102)
  %104 = icmp slt i32 %101, %103
  br i1 %104, label %105, label %109

105:                                              ; preds = %100
  %106 = load ptr, ptr %3, align 8
  %107 = load i32, ptr %8, align 4
  %108 = call ptr @Abc_NtkCo(ptr noundef %106, i32 noundef %107)
  store ptr %108, ptr %5, align 8
  br label %109

109:                                              ; preds = %105, %100
  %110 = phi i1 [ false, %100 ], [ true, %105 ]
  br i1 %110, label %111, label %131

111:                                              ; preds = %109
  %112 = load ptr, ptr %7, align 8
  %113 = load ptr, ptr %4, align 8
  %114 = load i32, ptr %8, align 4
  %115 = call ptr @Abc_NtkCo(ptr noundef %113, i32 noundef %114)
  %116 = getelementptr inbounds %struct.Abc_Obj_t_, ptr %115, i32 0, i32 2
  %117 = load i32, ptr %116, align 8
  %118 = sext i32 %117 to i64
  %119 = getelementptr inbounds ptr, ptr %112, i64 %118
  %120 = load ptr, ptr %119, align 8
  %121 = load ptr, ptr %6, align 8
  %122 = load ptr, ptr %5, align 8
  %123 = getelementptr inbounds %struct.Abc_Obj_t_, ptr %122, i32 0, i32 2
  %124 = load i32, ptr %123, align 8
  %125 = sext i32 %124 to i64
  %126 = getelementptr inbounds ptr, ptr %121, i64 %125
  %127 = load ptr, ptr %126, align 8
  call void @llvm.memcpy.p0.p0.i64(ptr align 4 %120, ptr align 4 %127, i64 8, i1 false)
  br label %128

128:                                              ; preds = %111
  %129 = load i32, ptr %8, align 4
  %130 = add nsw i32 %129, 1
  store i32 %130, ptr %8, align 4
  br label %100, !llvm.loop !26

131:                                              ; preds = %109
  %132 = load ptr, ptr %4, align 8
  %133 = getelementptr inbounds %struct.Abc_Ntk_t_, ptr %132, i32 0, i32 31
  %134 = load ptr, ptr %133, align 8
  %135 = getelementptr inbounds %struct.Abc_ManTime_t_, ptr %134, i32 0, i32 4
  %136 = load ptr, ptr %3, align 8
  %137 = getelementptr inbounds %struct.Abc_Ntk_t_, ptr %136, i32 0, i32 31
  %138 = load ptr, ptr %137, align 8
  %139 = getelementptr inbounds %struct.Abc_ManTime_t_, ptr %138, i32 0, i32 4
  call void @llvm.memcpy.p0.p0.i64(ptr align 8 %135, ptr align 8 %139, i64 8, i1 false)
  %140 = load ptr, ptr %4, align 8
  %141 = getelementptr inbounds %struct.Abc_Ntk_t_, ptr %140, i32 0, i32 31
  %142 = load ptr, ptr %141, align 8
  %143 = getelementptr inbounds %struct.Abc_ManTime_t_, ptr %142, i32 0, i32 5
  %144 = load ptr, ptr %3, align 8
  %145 = getelementptr inbounds %struct.Abc_Ntk_t_, ptr %144, i32 0, i32 31
  %146 = load ptr, ptr %145, align 8
  %147 = getelementptr inbounds %struct.Abc_ManTime_t_, ptr %146, i32 0, i32 5
  call void @llvm.memcpy.p0.p0.i64(ptr align 8 %143, ptr align 8 %147, i64 8, i1 false)
  %148 = load ptr, ptr %3, align 8
  %149 = getelementptr inbounds %struct.Abc_Ntk_t_, ptr %148, i32 0, i32 31
  %150 = load ptr, ptr %149, align 8
  %151 = getelementptr inbounds %struct.Abc_ManTime_t_, ptr %150, i32 0, i32 6
  %152 = load ptr, ptr %151, align 8
  %153 = icmp ne ptr %152, null
  br i1 %153, label %154, label %178

154:                                              ; preds = %131
  %155 = load ptr, ptr %3, align 8
  %156 = call i32 @Abc_NtkCiNum(ptr noundef %155)
  %157 = sext i32 %156 to i64
  %158 = mul i64 8, %157
  %159 = call noalias ptr @malloc(i64 noundef %158) #10
  %160 = load ptr, ptr %4, align 8
  %161 = getelementptr inbounds %struct.Abc_Ntk_t_, ptr %160, i32 0, i32 31
  %162 = load ptr, ptr %161, align 8
  %163 = getelementptr inbounds %struct.Abc_ManTime_t_, ptr %162, i32 0, i32 6
  store ptr %159, ptr %163, align 8
  %164 = load ptr, ptr %4, align 8
  %165 = getelementptr inbounds %struct.Abc_Ntk_t_, ptr %164, i32 0, i32 31
  %166 = load ptr, ptr %165, align 8
  %167 = getelementptr inbounds %struct.Abc_ManTime_t_, ptr %166, i32 0, i32 6
  %168 = load ptr, ptr %167, align 8
  %169 = load ptr, ptr %3, align 8
  %170 = getelementptr inbounds %struct.Abc_Ntk_t_, ptr %169, i32 0, i32 31
  %171 = load ptr, ptr %170, align 8
  %172 = getelementptr inbounds %struct.Abc_ManTime_t_, ptr %171, i32 0, i32 6
  %173 = load ptr, ptr %172, align 8
  %174 = load ptr, ptr %3, align 8
  %175 = call i32 @Abc_NtkCiNum(ptr noundef %174)
  %176 = sext i32 %175 to i64
  %177 = mul i64 8, %176
  call void @llvm.memcpy.p0.p0.i64(ptr align 4 %168, ptr align 4 %173, i64 %177, i1 false)
  br label %178

178:                                              ; preds = %154, %131
  %179 = load ptr, ptr %3, align 8
  %180 = getelementptr inbounds %struct.Abc_Ntk_t_, ptr %179, i32 0, i32 31
  %181 = load ptr, ptr %180, align 8
  %182 = getelementptr inbounds %struct.Abc_ManTime_t_, ptr %181, i32 0, i32 7
  %183 = load ptr, ptr %182, align 8
  %184 = icmp ne ptr %183, null
  br i1 %184, label %185, label %209

185:                                              ; preds = %178
  %186 = load ptr, ptr %3, align 8
  %187 = call i32 @Abc_NtkCoNum(ptr noundef %186)
  %188 = sext i32 %187 to i64
  %189 = mul i64 8, %188
  %190 = call noalias ptr @malloc(i64 noundef %189) #10
  %191 = load ptr, ptr %4, align 8
  %192 = getelementptr inbounds %struct.Abc_Ntk_t_, ptr %191, i32 0, i32 31
  %193 = load ptr, ptr %192, align 8
  %194 = getelementptr inbounds %struct.Abc_ManTime_t_, ptr %193, i32 0, i32 7
  store ptr %190, ptr %194, align 8
  %195 = load ptr, ptr %4, align 8
  %196 = getelementptr inbounds %struct.Abc_Ntk_t_, ptr %195, i32 0, i32 31
  %197 = load ptr, ptr %196, align 8
  %198 = getelementptr inbounds %struct.Abc_ManTime_t_, ptr %197, i32 0, i32 7
  %199 = load ptr, ptr %198, align 8
  %200 = load ptr, ptr %3, align 8
  %201 = getelementptr inbounds %struct.Abc_Ntk_t_, ptr %200, i32 0, i32 31
  %202 = load ptr, ptr %201, align 8
  %203 = getelementptr inbounds %struct.Abc_ManTime_t_, ptr %202, i32 0, i32 7
  %204 = load ptr, ptr %203, align 8
  %205 = load ptr, ptr %3, align 8
  %206 = call i32 @Abc_NtkCoNum(ptr noundef %205)
  %207 = sext i32 %206 to i64
  %208 = mul i64 8, %207
  call void @llvm.memcpy.p0.p0.i64(ptr align 4 %199, ptr align 4 %204, i64 %208, i1 false)
  br label %209

209:                                              ; preds = %185, %178, %13
  ret void
}