; Function Attrs: nounwind uwtable
define void @Abc_ManTimeDup(ptr noundef readonly captures(none) %0, ptr noundef captures(none) %1) local_unnamed_addr #3 {
  %3 = getelementptr inbounds nuw i8, ptr %0, i64 264
  %4 = load ptr, ptr %3, align 8
  %5 = icmp eq ptr %4, null
  br i1 %5, label %138, label %6

6:                                                ; preds = %2
  %7 = tail call fastcc ptr @Abc_ManTimeStart(ptr noundef %1)
  %8 = getelementptr inbounds nuw i8, ptr %1, i64 264
  store ptr %7, ptr %8, align 8
  %9 = getelementptr i8, ptr %1, i64 32
  %.val = load ptr, ptr %9, align 8
  %10 = getelementptr i8, ptr %.val, i64 4
  %.val.val = load i32, ptr %10, align 4
  tail call fastcc void @Abc_ManTimeExpand(ptr noundef %7, i32 noundef %.val.val, i32 noundef 0)
  %11 = load ptr, ptr %8, align 8
  %12 = load ptr, ptr %3, align 8
  %13 = load i64, ptr %12, align 8
  store i64 %13, ptr %11, align 8
  %14 = load ptr, ptr %8, align 8
  %15 = getelementptr inbounds nuw i8, ptr %14, i64 8
  %16 = load ptr, ptr %3, align 8
  %17 = getelementptr inbounds nuw i8, ptr %16, i64 8
  %18 = load i64, ptr %17, align 8
  store i64 %18, ptr %15, align 8
  %19 = load ptr, ptr %3, align 8
  %20 = getelementptr inbounds nuw i8, ptr %19, i64 16
  %21 = load ptr, ptr %20, align 8
  %22 = getelementptr inbounds nuw i8, ptr %21, i64 8
  %23 = load ptr, ptr %22, align 8
  %24 = load ptr, ptr %8, align 8
  %25 = getelementptr inbounds nuw i8, ptr %24, i64 16
  %26 = load ptr, ptr %25, align 8
  %27 = getelementptr inbounds nuw i8, ptr %26, i64 8
  %28 = load ptr, ptr %27, align 8
  %29 = getelementptr i8, ptr %0, i64 56
  %.val5362 = load ptr, ptr %29, align 8
  %30 = getelementptr i8, ptr %.val5362, i64 4
  %.val53.val63 = load i32, ptr %30, align 4
  %31 = icmp sgt i32 %.val53.val63, 0
  br i1 %31, label %.lr.ph, label %.critedge

.lr.ph:                                           ; preds = %6
  %32 = getelementptr i8, ptr %1, i64 56
  br label %33

33:                                               ; preds = %.lr.ph, %33
  %indvars.iv = phi i64 [ 0, %.lr.ph ], [ %indvars.iv.next, %33 ]
  %.val5365 = phi ptr [ %.val5362, %.lr.ph ], [ %.val53, %33 ]
  %34 = getelementptr i8, ptr %.val5365, i64 8
  %.val55.val = load ptr, ptr %34, align 8
  %35 = getelementptr inbounds nuw ptr, ptr %.val55.val, i64 %indvars.iv
  %36 = load ptr, ptr %35, align 8
  %.val54 = load ptr, ptr %32, align 8
  %37 = getelementptr i8, ptr %.val54, i64 8
  %.val54.val = load ptr, ptr %37, align 8
  %38 = getelementptr inbounds nuw ptr, ptr %.val54.val, i64 %indvars.iv
  %39 = load ptr, ptr %38, align 8
  %40 = getelementptr inbounds nuw i8, ptr %39, i64 16
  %41 = load i32, ptr %40, align 8
  %42 = sext i32 %41 to i64
  %43 = getelementptr inbounds ptr, ptr %28, i64 %42
  %44 = load ptr, ptr %43, align 8
  %45 = getelementptr inbounds nuw i8, ptr %36, i64 16
  %46 = load i32, ptr %45, align 8
  %47 = sext i32 %46 to i64
  %48 = getelementptr inbounds ptr, ptr %23, i64 %47
  %49 = load ptr, ptr %48, align 8
  %50 = load i64, ptr %49, align 4
  store i64 %50, ptr %44, align 4
  %indvars.iv.next = add nuw nsw i64 %indvars.iv, 1
  %.val53 = load ptr, ptr %29, align 8
  %51 = getelementptr i8, ptr %.val53, i64 4
  %.val53.val = load i32, ptr %51, align 4
  %52 = sext i32 %.val53.val to i64
  %53 = icmp slt i64 %indvars.iv.next, %52
  br i1 %53, label %33, label %.critedge.loopexit, !llvm.loop !25

.critedge.loopexit:                               ; preds = %33
  %.pre = load ptr, ptr %3, align 8
  %.pre75 = load ptr, ptr %8, align 8
  br label %.critedge

.critedge:                                        ; preds = %.critedge.loopexit, %6
  %54 = phi ptr [ %.pre75, %.critedge.loopexit ], [ %24, %6 ]
  %55 = phi ptr [ %.pre, %.critedge.loopexit ], [ %19, %6 ]
  %56 = getelementptr inbounds nuw i8, ptr %55, i64 24
  %57 = load ptr, ptr %56, align 8
  %58 = getelementptr inbounds nuw i8, ptr %57, i64 8
  %59 = load ptr, ptr %58, align 8
  %60 = getelementptr inbounds nuw i8, ptr %54, i64 24
  %61 = load ptr, ptr %60, align 8
  %62 = getelementptr inbounds nuw i8, ptr %61, i64 8
  %63 = load ptr, ptr %62, align 8
  %64 = getelementptr i8, ptr %0, i64 64
  %.val5866 = load ptr, ptr %64, align 8
  %65 = getelementptr i8, ptr %.val5866, i64 4
  %.val58.val67 = load i32, ptr %65, align 4
  %66 = icmp sgt i32 %.val58.val67, 0
  br i1 %66, label %.lr.ph70, label %.critedge2

.lr.ph70:                                         ; preds = %.critedge
  %67 = getelementptr i8, ptr %1, i64 64
  br label %68

68:                                               ; preds = %.lr.ph70, %68
  %indvars.iv72 = phi i64 [ 0, %.lr.ph70 ], [ %indvars.iv.next73, %68 ]
  %.val5869 = phi ptr [ %.val5866, %.lr.ph70 ], [ %.val58, %68 ]
  %69 = getelementptr i8, ptr %.val5869, i64 8
  %.val60.val = load ptr, ptr %69, align 8
  %70 = getelementptr inbounds nuw ptr, ptr %.val60.val, i64 %indvars.iv72
  %71 = load ptr, ptr %70, align 8
  %.val59 = load ptr, ptr %67, align 8
  %72 = getelementptr i8, ptr %.val59, i64 8
  %.val59.val = load ptr, ptr %72, align 8
  %73 = getelementptr inbounds nuw ptr, ptr %.val59.val, i64 %indvars.iv72
  %74 = load ptr, ptr %73, align 8
  %75 = getelementptr inbounds nuw i8, ptr %74, i64 16
  %76 = load i32, ptr %75, align 8
  %77 = sext i32 %76 to i64
  %78 = getelementptr inbounds ptr, ptr %63, i64 %77
  %79 = load ptr, ptr %78, align 8
  %80 = getelementptr inbounds nuw i8, ptr %71, i64 16
  %81 = load i32, ptr %80, align 8
  %82 = sext i32 %81 to i64
  %83 = getelementptr inbounds ptr, ptr %59, i64 %82
  %84 = load ptr, ptr %83, align 8
  %85 = load i64, ptr %84, align 4
  store i64 %85, ptr %79, align 4
  %indvars.iv.next73 = add nuw nsw i64 %indvars.iv72, 1
  %.val58 = load ptr, ptr %64, align 8
  %86 = getelementptr i8, ptr %.val58, i64 4
  %.val58.val = load i32, ptr %86, align 4
  %87 = sext i32 %.val58.val to i64
  %88 = icmp slt i64 %indvars.iv.next73, %87
  br i1 %88, label %68, label %.critedge2.loopexit, !llvm.loop !26

.critedge2.loopexit:                              ; preds = %68
  %.pre76 = load ptr, ptr %8, align 8
  %.pre77 = load ptr, ptr %3, align 8
  br label %.critedge2

.critedge2:                                       ; preds = %.critedge2.loopexit, %.critedge
  %89 = phi ptr [ %.pre77, %.critedge2.loopexit ], [ %55, %.critedge ]
  %90 = phi ptr [ %.pre76, %.critedge2.loopexit ], [ %54, %.critedge ]
  %91 = getelementptr inbounds nuw i8, ptr %90, i64 32
  %92 = getelementptr inbounds nuw i8, ptr %89, i64 32
  %93 = load i64, ptr %92, align 8
  store i64 %93, ptr %91, align 8
  %94 = load ptr, ptr %8, align 8
  %95 = getelementptr inbounds nuw i8, ptr %94, i64 40
  %96 = load ptr, ptr %3, align 8
  %97 = getelementptr inbounds nuw i8, ptr %96, i64 40
  %98 = load i64, ptr %97, align 8
  store i64 %98, ptr %95, align 8
  %99 = load ptr, ptr %3, align 8
  %100 = getelementptr inbounds nuw i8, ptr %99, i64 48
  %101 = load ptr, ptr %100, align 8
  %.not = icmp eq ptr %101, null
  br i1 %.not, label %118, label %102

102:                                              ; preds = %.critedge2
  %.val52 = load ptr, ptr %29, align 8
  %103 = getelementptr i8, ptr %.val52, i64 4
  %.val52.val = load i32, ptr %103, align 4
  %104 = sext i32 %.val52.val to i64
  %105 = shl nsw i64 %104, 3
  %106 = tail call noalias ptr @malloc(i64 noundef %105) #20
  %107 = load ptr, ptr %8, align 8
  %108 = getelementptr inbounds nuw i8, ptr %107, i64 48
  store ptr %106, ptr %108, align 8
  %109 = load ptr, ptr %8, align 8
  %110 = getelementptr inbounds nuw i8, ptr %109, i64 48
  %111 = load ptr, ptr %110, align 8
  %112 = load ptr, ptr %3, align 8
  %113 = getelementptr inbounds nuw i8, ptr %112, i64 48
  %114 = load ptr, ptr %113, align 8
  %.val51 = load ptr, ptr %29, align 8
  %115 = getelementptr i8, ptr %.val51, i64 4
  %.val51.val = load i32, ptr %115, align 4
  %116 = sext i32 %.val51.val to i64
  %117 = shl nsw i64 %116, 3
  tail call void @llvm.memcpy.p0.p0.i64(ptr align 4 %111, ptr align 4 %114, i64 %117, i1 false)
  %.pre78 = load ptr, ptr %3, align 8
  br label %118

118:                                              ; preds = %102, %.critedge2
  %119 = phi ptr [ %.pre78, %102 ], [ %99, %.critedge2 ]
  %120 = getelementptr inbounds nuw i8, ptr %119, i64 56
  %121 = load ptr, ptr %120, align 8
  %.not50 = icmp eq ptr %121, null
  br i1 %.not50, label %138, label %122

122:                                              ; preds = %118
  %.val57 = load ptr, ptr %64, align 8
  %123 = getelementptr i8, ptr %.val57, i64 4
  %.val57.val = load i32, ptr %123, align 4
  %124 = sext i32 %.val57.val to i64
  %125 = shl nsw i64 %124, 3
  %126 = tail call noalias ptr @malloc(i64 noundef %125) #20
  %127 = load ptr, ptr %8, align 8
  %128 = getelementptr inbounds nuw i8, ptr %127, i64 56
  store ptr %126, ptr %128, align 8
  %129 = load ptr, ptr %8, align 8
  %130 = getelementptr inbounds nuw i8, ptr %129, i64 56
  %131 = load ptr, ptr %130, align 8
  %132 = load ptr, ptr %3, align 8
  %133 = getelementptr inbounds nuw i8, ptr %132, i64 56
  %134 = load ptr, ptr %133, align 8
  %.val56 = load ptr, ptr %64, align 8
  %135 = getelementptr i8, ptr %.val56, i64 4
  %.val56.val = load i32, ptr %135, align 4
  %136 = sext i32 %.val56.val to i64
  %137 = shl nsw i64 %136, 3
  tail call void @llvm.memcpy.p0.p0.i64(ptr align 4 %131, ptr align 4 %134, i64 %137, i1 false)
  br label %138

138:                                              ; preds = %2, %122, %118
  ret void
}